target datalayout = "e-m:e-p270:32:32-p271:32:32-p272:64:64-i64:64-i128:128-f80:128-n8:16:32:64-S128"
target triple = "x86_64-pc-linux-gnu"

%struct.lua_State = type { %struct.GCRef, i8, i8, i8, i8, %struct.MRef, %struct.GCRef, ptr, ptr, %struct.MRef, %struct.MRef, %struct.GCRef, %struct.GCRef, ptr, i32 }
%struct.MRef = type { i64 }
%struct.GCRef = type { i64 }
%union.TValue = type { i64 }
%struct.GCproto = type { %struct.GCRef, i8, i8, i8, i8, i32, i32, %struct.GCRef, %struct.MRef, %struct.MRef, i32, i32, i32, i8, i8, i16, %struct.GCRef, i32, i32, %struct.MRef, %struct.MRef, %struct.MRef }
%struct.GCfuncL = type { %struct.GCRef, i8, i8, i8, i8, %struct.GCRef, %struct.GCRef, %struct.MRef, [1 x %struct.GCRef] }
%struct.lua_Debug = type { i32, ptr, ptr, ptr, ptr, i32, i32, i32, i32, [60 x i8], i32 }

@.str.34 = private unnamed_addr constant [78 x i8] c"(for index)\00(for limit)\00(for step)\00(for generator)\00(for state)\00(for control)\00\00", align 1
@.str.35 = private unnamed_addr constant [10 x i8] c"(*vararg)\00", align 1
@.str.36 = private unnamed_addr constant [13 x i8] c"(*temporary)\00", align 1

; Function Attrs: nounwind uwtable
define internal ptr @debug_varname(ptr noundef %0, i32 noundef %1, i32 noundef %2) #0 {
  %4 = alloca ptr, align 8
  %5 = alloca ptr, align 8
  %6 = alloca i32, align 4
  %7 = alloca i32, align 4
  %8 = alloca ptr, align 8
  %9 = alloca i32, align 4
  %10 = alloca ptr, align 8
  %11 = alloca i32, align 4
  %12 = alloca i32, align 4
  %13 = alloca i32, align 4
  %14 = alloca i32, align 4
  store ptr %0, ptr %5, align 8, !tbaa !24
  store i32 %1, ptr %6, align 4, !tbaa !9
  store i32 %2, ptr %7, align 4, !tbaa !9
  call void @llvm.lifetime.start.p0(i64 8, ptr %8) #8
  %15 = load ptr, ptr %5, align 8, !tbaa !24
  %16 = getelementptr inbounds nuw %struct.GCproto, ptr %15, i32 0, i32 21
  %17 = getelementptr inbounds nuw %struct.MRef, ptr %16, i32 0, i32 0
  %18 = load i64, ptr %17, align 8, !tbaa !52
  %19 = inttoptr i64 %18 to ptr
  store ptr %19, ptr %8, align 8, !tbaa !35
  %20 = load ptr, ptr %8, align 8, !tbaa !35
  %21 = icmp ne ptr %20, null
  br i1 %21, label %22, label %98

22:                                               ; preds = %3
  call void @llvm.lifetime.start.p0(i64 4, ptr %9) #8
  store i32 0, ptr %9, align 4, !tbaa !9
  br label %23

23:                                               ; preds = %93, %22
  call void @llvm.lifetime.start.p0(i64 8, ptr %10) #8
  %24 = load ptr, ptr %8, align 8, !tbaa !35
  store ptr %24, ptr %10, align 8, !tbaa !35
  call void @llvm.lifetime.start.p0(i64 4, ptr %11) #8
  %25 = load ptr, ptr %8, align 8, !tbaa !35
  %26 = load i8, ptr %25, align 1, !tbaa !21
  %27 = zext i8 %26 to i32
  store i32 %27, ptr %11, align 4, !tbaa !9
  call void @llvm.lifetime.start.p0(i64 4, ptr %12) #8
  call void @llvm.lifetime.start.p0(i64 4, ptr %13) #8
  %28 = load i32, ptr %11, align 4, !tbaa !9
  %29 = icmp ult i32 %28, 7
  br i1 %29, label %30, label %35

30:                                               ; preds = %23
  %31 = load i32, ptr %11, align 4, !tbaa !9
  %32 = icmp eq i32 %31, 0
  br i1 %32, label %33, label %34

33:                                               ; preds = %30
  store i32 2, ptr %14, align 4
  br label %91

34:                                               ; preds = %30
  br label %44

35:                                               ; preds = %23
  br label %36

36:                                               ; preds = %39, %35
  %37 = load ptr, ptr %8, align 8, !tbaa !35
  %38 = getelementptr inbounds nuw i8, ptr %37, i32 1
  store ptr %38, ptr %8, align 8, !tbaa !35
  br label %39

39:                                               ; preds = %36
  %40 = load ptr, ptr %8, align 8, !tbaa !35
  %41 = load i8, ptr %40, align 1, !tbaa !21
  %42 = icmp ne i8 %41, 0
  br i1 %42, label %36, label %43, !llvm.loop !53

43:                                               ; preds = %39
  br label %44

44:                                               ; preds = %43, %34
  %45 = load ptr, ptr %8, align 8, !tbaa !35
  %46 = getelementptr inbounds nuw i8, ptr %45, i32 1
  store ptr %46, ptr %8, align 8, !tbaa !35
  %47 = load i32, ptr %9, align 4, !tbaa !9
  %48 = call i32 @lj_buf_ruleb128(ptr noundef %8)
  %49 = add i32 %47, %48
  store i32 %49, ptr %12, align 4, !tbaa !9
  store i32 %49, ptr %9, align 4, !tbaa !9
  %50 = load i32, ptr %12, align 4, !tbaa !9
  %51 = load i32, ptr %6, align 4, !tbaa !9
  %52 = icmp ugt i32 %50, %51
  br i1 %52, label %53, label %54

53:                                               ; preds = %44
  store i32 2, ptr %14, align 4
  br label %91

54:                                               ; preds = %44
  %55 = load i32, ptr %12, align 4, !tbaa !9
  %56 = call i32 @lj_buf_ruleb128(ptr noundef %8)
  %57 = add i32 %55, %56
  store i32 %57, ptr %13, align 4, !tbaa !9
  %58 = load i32, ptr %6, align 4, !tbaa !9
  %59 = load i32, ptr %13, align 4, !tbaa !9
  %60 = icmp ult i32 %58, %59
  br i1 %60, label %61, label %90

61:                                               ; preds = %54
  %62 = load i32, ptr %7, align 4, !tbaa !9
  %63 = add i32 %62, -1
  store i32 %63, ptr %7, align 4, !tbaa !9
  %64 = icmp eq i32 %62, 0
  br i1 %64, label %65, label %90

65:                                               ; preds = %61
  %66 = load i32, ptr %11, align 4, !tbaa !9
  %67 = icmp ult i32 %66, 7
  br i1 %67, label %68, label %88

68:                                               ; preds = %65
  store ptr @.str.34, ptr %10, align 8, !tbaa !35
  %69 = load i32, ptr %11, align 4, !tbaa !9
  %70 = add i32 %69, -1
  store i32 %70, ptr %11, align 4, !tbaa !9
  %71 = icmp ne i32 %70, 0
  br i1 %71, label %72, label %87

72:                                               ; preds = %68
  br label %73

73:                                               ; preds = %85, %72
  %74 = load ptr, ptr %10, align 8, !tbaa !35
  %75 = getelementptr inbounds nuw i8, ptr %74, i32 1
  store ptr %75, ptr %10, align 8, !tbaa !35
  %76 = load i8, ptr %74, align 1, !tbaa !21
  %77 = sext i8 %76 to i32
  %78 = icmp ne i32 %77, 0
  br i1 %78, label %83, label %79

79:                                               ; preds = %73
  %80 = load i32, ptr %11, align 4, !tbaa !9
  %81 = add i32 %80, -1
  store i32 %81, ptr %11, align 4, !tbaa !9
  %82 = icmp ne i32 %81, 0
  br label %83

83:                                               ; preds = %79, %73
  %84 = phi i1 [ true, %73 ], [ %82, %79 ]
  br i1 %84, label %85, label %86

85:                                               ; preds = %83
  br label %73, !llvm.loop !54

86:                                               ; preds = %83
  br label %87

87:                                               ; preds = %86, %68
  br label %88

88:                                               ; preds = %87, %65
  %89 = load ptr, ptr %10, align 8, !tbaa !35
  store ptr %89, ptr %4, align 8
  store i32 1, ptr %14, align 4
  br label %91

90:                                               ; preds = %61, %54
  store i32 0, ptr %14, align 4
  br label %91

91:                                               ; preds = %90, %88, %53, %33
  call void @llvm.lifetime.end.p0(i64 4, ptr %13) #8
  call void @llvm.lifetime.end.p0(i64 4, ptr %12) #8
  call void @llvm.lifetime.end.p0(i64 4, ptr %11) #8
  call void @llvm.lifetime.end.p0(i64 8, ptr %10) #8
  %92 = load i32, ptr %14, align 4
  switch i32 %92, label %95 [
    i32 0, label %93
    i32 2, label %94
  ]

93:                                               ; preds = %91
  br label %23

94:                                               ; preds = %91
  store i32 0, ptr %14, align 4
  br label %95

95:                                               ; preds = %94, %91
  call void @llvm.lifetime.end.p0(i64 4, ptr %9) #8
  %96 = load i32, ptr %14, align 4
  switch i32 %96, label %99 [
    i32 0, label %97
  ]

97:                                               ; preds = %95
  br label %98

98:                                               ; preds = %97, %3
  store ptr null, ptr %4, align 8
  store i32 1, ptr %14, align 4
  br label %99

99:                                               ; preds = %98, %95
  call void @llvm.lifetime.end.p0(i64 8, ptr %8) #8
  %100 = load ptr, ptr %4, align 8
  ret ptr %100
}

; Function Attrs: nounwind uwtable
define internal ptr @debug_localname(ptr noundef %0, ptr noundef %1, ptr noundef %2, i32 noundef %3) #0 {
  %5 = alloca ptr, align 8
  %6 = alloca ptr, align 8
  %7 = alloca ptr, align 8
  %8 = alloca ptr, align 8
  %9 = alloca i32, align 4
  %10 = alloca i32, align 4
  %11 = alloca i32, align 4
  %12 = alloca ptr, align 8
  %13 = alloca ptr, align 8
  %14 = alloca ptr, align 8
  %15 = alloca i32, align 4
  %16 = alloca ptr, align 8
  %17 = alloca i32, align 4
  store ptr %0, ptr %6, align 8, !tbaa !4
  store ptr %1, ptr %7, align 8, !tbaa !73
  store ptr %2, ptr %8, align 8, !tbaa !47
  store i32 %3, ptr %9, align 4, !tbaa !9
  call void @llvm.lifetime.start.p0(i64 4, ptr %10) #8
  %18 = load ptr, ptr %7, align 8, !tbaa !73
  %19 = getelementptr inbounds nuw %struct.lua_Debug, ptr %18, i32 0, i32 10
  %20 = load i32, ptr %19, align 4, !tbaa !77
  %21 = and i32 %20, 65535
  store i32 %21, ptr %10, align 4, !tbaa !9
  call void @llvm.lifetime.start.p0(i64 4, ptr %11) #8
  %22 = load ptr, ptr %7, align 8, !tbaa !73
  %23 = getelementptr inbounds nuw %struct.lua_Debug, ptr %22, i32 0, i32 10
  %24 = load i32, ptr %23, align 4, !tbaa !77
  %25 = lshr i32 %24, 16
  store i32 %25, ptr %11, align 4, !tbaa !9
  call void @llvm.lifetime.start.p0(i64 8, ptr %12) #8
  %26 = load ptr, ptr %6, align 8, !tbaa !4
  %27 = getelementptr inbounds nuw %struct.lua_State, ptr %26, i32 0, i32 10
  %28 = getelementptr inbounds nuw %struct.MRef, ptr %27, i32 0, i32 0
  %29 = load i64, ptr %28, align 8, !tbaa !13
  %30 = inttoptr i64 %29 to ptr
  %31 = load i32, ptr %10, align 4, !tbaa !9
  %32 = zext i32 %31 to i64
  %33 = getelementptr inbounds nuw %union.TValue, ptr %30, i64 %32
  store ptr %33, ptr %12, align 8, !tbaa !19
  call void @llvm.lifetime.start.p0(i64 8, ptr %13) #8
  %34 = load i32, ptr %11, align 4, !tbaa !9
  %35 = icmp ne i32 %34, 0
  br i1 %35, label %36, label %41

36:                                               ; preds = %4
  %37 = load ptr, ptr %12, align 8, !tbaa !19
  %38 = load i32, ptr %11, align 4, !tbaa !9
  %39 = zext i32 %38 to i64
  %40 = getelementptr inbounds nuw %union.TValue, ptr %37, i64 %39
  br label %42

41:                                               ; preds = %4
  br label %42

42:                                               ; preds = %41, %36
  %43 = phi ptr [ %40, %36 ], [ null, %41 ]
  store ptr %43, ptr %13, align 8, !tbaa !19
  call void @llvm.lifetime.start.p0(i64 8, ptr %14) #8
  %44 = load ptr, ptr %12, align 8, !tbaa !19
  %45 = getelementptr inbounds %union.TValue, ptr %44, i64 -1
  %46 = getelementptr inbounds nuw %struct.GCRef, ptr %45, i32 0, i32 0
  %47 = load i64, ptr %46, align 8, !tbaa !21
  %48 = and i64 %47, 140737488355327
  %49 = inttoptr i64 %48 to ptr
  store ptr %49, ptr %14, align 8, !tbaa !42
  call void @llvm.lifetime.start.p0(i64 4, ptr %15) #8
  %50 = load ptr, ptr %6, align 8, !tbaa !4
  %51 = load ptr, ptr %14, align 8, !tbaa !42
  %52 = load ptr, ptr %13, align 8, !tbaa !19
  %53 = call i32 @debug_framepc(ptr noundef %50, ptr noundef %51, ptr noundef %52)
  store i32 %53, ptr %15, align 4, !tbaa !9
  %54 = load ptr, ptr %13, align 8, !tbaa !19
  %55 = icmp ne ptr %54, null
  br i1 %55, label %61, label %56

56:                                               ; preds = %42
  %57 = load ptr, ptr %6, align 8, !tbaa !4
  %58 = getelementptr inbounds nuw %struct.lua_State, ptr %57, i32 0, i32 8
  %59 = load ptr, ptr %58, align 8, !tbaa !75
  %60 = getelementptr inbounds %union.TValue, ptr %59, i64 1
  store ptr %60, ptr %13, align 8, !tbaa !19
  br label %61

61:                                               ; preds = %56, %42
  %62 = load i32, ptr %9, align 4, !tbaa !9
  %63 = icmp slt i32 %62, 0
  br i1 %63, label %64, label %120

64:                                               ; preds = %61
  %65 = load i32, ptr %15, align 4, !tbaa !9
  %66 = icmp ne i32 %65, -1
  br i1 %66, label %67, label %119

67:                                               ; preds = %64
  call void @llvm.lifetime.start.p0(i64 8, ptr %16) #8
  %68 = load ptr, ptr %14, align 8, !tbaa !42
  %69 = getelementptr inbounds nuw %struct.GCfuncL, ptr %68, i32 0, i32 7
  %70 = getelementptr inbounds nuw %struct.MRef, ptr %69, i32 0, i32 0
  %71 = load i64, ptr %70, align 8, !tbaa !21
  %72 = inttoptr i64 %71 to ptr
  %73 = getelementptr inbounds i8, ptr %72, i64 -104
  store ptr %73, ptr %16, align 8, !tbaa !24
  %74 = load ptr, ptr %16, align 8, !tbaa !24
  %75 = getelementptr inbounds nuw %struct.GCproto, ptr %74, i32 0, i32 14
  %76 = load i8, ptr %75, align 1, !tbaa !79
  %77 = zext i8 %76 to i32
  %78 = and i32 %77, 2
  %79 = icmp ne i32 %78, 0
  br i1 %79, label %80, label %115

80:                                               ; preds = %67
  %81 = load ptr, ptr %16, align 8, !tbaa !24
  %82 = getelementptr inbounds nuw %struct.GCproto, ptr %81, i32 0, i32 3
  %83 = load i8, ptr %82, align 2, !tbaa !80
  %84 = zext i8 %83 to i32
  %85 = load i32, ptr %9, align 4, !tbaa !9
  %86 = sub nsw i32 0, %85
  %87 = add i32 %84, %86
  store i32 %87, ptr %9, align 4, !tbaa !9
  %88 = load ptr, ptr %12, align 8, !tbaa !19
  %89 = load i64, ptr %88, align 8, !tbaa !21
  %90 = and i64 %89, 7
  %91 = icmp eq i64 %90, 3
  br i1 %91, label %92, label %100

92:                                               ; preds = %80
  %93 = load ptr, ptr %12, align 8, !tbaa !19
  store ptr %93, ptr %13, align 8, !tbaa !19
  %94 = load ptr, ptr %12, align 8, !tbaa !19
  %95 = load ptr, ptr %12, align 8, !tbaa !19
  %96 = load i64, ptr %95, align 8, !tbaa !21
  %97 = and i64 %96, -8
  %98 = sub i64 0, %97
  %99 = getelementptr inbounds i8, ptr %94, i64 %98
  store ptr %99, ptr %12, align 8, !tbaa !19
  br label %100

100:                                              ; preds = %92, %80
  %101 = load ptr, ptr %12, align 8, !tbaa !19
  %102 = load i32, ptr %9, align 4, !tbaa !9
  %103 = zext i32 %102 to i64
  %104 = getelementptr inbounds nuw %union.TValue, ptr %101, i64 %103
  %105 = getelementptr inbounds %union.TValue, ptr %104, i64 1
  %106 = load ptr, ptr %13, align 8, !tbaa !19
  %107 = icmp ult ptr %105, %106
  br i1 %107, label %108, label %114

108:                                              ; preds = %100
  %109 = load ptr, ptr %8, align 8, !tbaa !47
  store ptr @.str.35, ptr %109, align 8, !tbaa !35
  %110 = load ptr, ptr %12, align 8, !tbaa !19
  %111 = load i32, ptr %9, align 4, !tbaa !9
  %112 = zext i32 %111 to i64
  %113 = getelementptr inbounds nuw %union.TValue, ptr %110, i64 %112
  store ptr %113, ptr %5, align 8
  store i32 1, ptr %17, align 4
  br label %116

114:                                              ; preds = %100
  br label %115

115:                                              ; preds = %114, %67
  store i32 0, ptr %17, align 4
  br label %116

116:                                              ; preds = %115, %108
  call void @llvm.lifetime.end.p0(i64 8, ptr %16) #8
  %117 = load i32, ptr %17, align 4
  switch i32 %117, label %156 [
    i32 0, label %118
  ]

118:                                              ; preds = %116
  br label %119

119:                                              ; preds = %118, %64
  store ptr null, ptr %5, align 8
  store i32 1, ptr %17, align 4
  br label %156

120:                                              ; preds = %61
  %121 = load i32, ptr %15, align 4, !tbaa !9
  %122 = icmp ne i32 %121, -1
  br i1 %122, label %123, label %137

123:                                              ; preds = %120
  %124 = load ptr, ptr %14, align 8, !tbaa !42
  %125 = getelementptr inbounds nuw %struct.GCfuncL, ptr %124, i32 0, i32 7
  %126 = getelementptr inbounds nuw %struct.MRef, ptr %125, i32 0, i32 0
  %127 = load i64, ptr %126, align 8, !tbaa !21
  %128 = inttoptr i64 %127 to ptr
  %129 = getelementptr inbounds i8, ptr %128, i64 -104
  %130 = load i32, ptr %15, align 4, !tbaa !9
  %131 = load i32, ptr %9, align 4, !tbaa !9
  %132 = sub i32 %131, 1
  %133 = call ptr @debug_varname(ptr noundef %129, i32 noundef %130, i32 noundef %132)
  %134 = load ptr, ptr %8, align 8, !tbaa !47
  store ptr %133, ptr %134, align 8, !tbaa !35
  %135 = icmp ne ptr %133, null
  br i1 %135, label %136, label %137

136:                                              ; preds = %123
  br label %151

137:                                              ; preds = %123, %120
  %138 = load i32, ptr %9, align 4, !tbaa !9
  %139 = icmp ugt i32 %138, 0
  br i1 %139, label %140, label %150

140:                                              ; preds = %137
  %141 = load ptr, ptr %12, align 8, !tbaa !19
  %142 = load i32, ptr %9, align 4, !tbaa !9
  %143 = zext i32 %142 to i64
  %144 = getelementptr inbounds nuw %union.TValue, ptr %141, i64 %143
  %145 = getelementptr inbounds %union.TValue, ptr %144, i64 1
  %146 = load ptr, ptr %13, align 8, !tbaa !19
  %147 = icmp ult ptr %145, %146
  br i1 %147, label %148, label %150

148:                                              ; preds = %140
  %149 = load ptr, ptr %8, align 8, !tbaa !47
  store ptr @.str.36, ptr %149, align 8, !tbaa !35
  br label %150

150:                                              ; preds = %148, %140, %137
  br label %151

151:                                              ; preds = %150, %136
  %152 = load ptr, ptr %12, align 8, !tbaa !19
  %153 = load i32, ptr %9, align 4, !tbaa !9
  %154 = zext i32 %153 to i64
  %155 = getelementptr inbounds nuw %union.TValue, ptr %152, i64 %154
  store ptr %155, ptr %5, align 8
  store i32 1, ptr %17, align 4
  br label %156

156:                                              ; preds = %151, %119, %116
  call void @llvm.lifetime.end.p0(i64 4, ptr %15) #8
  call void @llvm.lifetime.end.p0(i64 8, ptr %14) #8
  call void @llvm.lifetime.end.p0(i64 8, ptr %13) #8
  call void @llvm.lifetime.end.p0(i64 8, ptr %12) #8
  call void @llvm.lifetime.end.p0(i64 4, ptr %11) #8
  call void @llvm.lifetime.end.p0(i64 4, ptr %10) #8
  %157 = load ptr, ptr %5, align 8
  ret ptr %157
}