; Function Attrs: nounwind uwtable
define internal fastcc ptr @debug_localname(ptr noundef readonly captures(none) %0, i32 %.116.val, ptr noundef nonnull writeonly captures(none) %1, i32 noundef %2) unnamed_addr #4 {
  %4 = alloca ptr, align 8
  %5 = and i32 %.116.val, 65535
  %6 = lshr i32 %.116.val, 16
  %7 = getelementptr inbounds nuw i8, ptr %0, i64 56
  %8 = load i64, ptr %7, align 8, !tbaa !4
  %9 = inttoptr i64 %8 to ptr
  %10 = zext nneg i32 %5 to i64
  %11 = getelementptr inbounds nuw %union.TValue, ptr %9, i64 %10
  %.not = icmp ult i32 %.116.val, 65536
  %12 = zext nneg i32 %6 to i64
  %13 = getelementptr inbounds nuw %union.TValue, ptr %11, i64 %12
  %14 = select i1 %.not, ptr null, ptr %13
  %15 = getelementptr inbounds i8, ptr %11, i64 -8
  %16 = load i64, ptr %15, align 8, !tbaa !15
  %17 = and i64 %16, 140737488355327
  %18 = inttoptr i64 %17 to ptr
  %19 = tail call fastcc i32 @debug_framepc(ptr noundef %0, ptr noundef %18, ptr noundef %14)
  %.not52 = icmp eq ptr %14, null
  br i1 %.not52, label %20, label %24

20:                                               ; preds = %3
  %21 = getelementptr inbounds nuw i8, ptr %0, i64 40
  %22 = load ptr, ptr %21, align 8, !tbaa !58
  %23 = getelementptr inbounds nuw i8, ptr %22, i64 8
  br label %24

24:                                               ; preds = %20, %3
  %.046 = phi ptr [ %13, %3 ], [ %23, %20 ]
  %25 = icmp slt i32 %2, 0
  %.not54 = icmp eq i32 %19, -1
  br i1 %25, label %26, label %49

26:                                               ; preds = %24
  br i1 %.not54, label %.thread, label %27

27:                                               ; preds = %26
  %28 = getelementptr inbounds nuw i8, ptr %18, i64 32
  %29 = load i64, ptr %28, align 8, !tbaa !15
  %30 = inttoptr i64 %29 to ptr
  %31 = getelementptr inbounds i8, ptr %30, i64 -43
  %32 = load i8, ptr %31, align 1, !tbaa !60
  %33 = and i8 %32, 2
  %.not55 = icmp eq i8 %33, 0
  br i1 %.not55, label %.thread, label %34

34:                                               ; preds = %27
  %35 = getelementptr inbounds i8, ptr %30, i64 -94
  %36 = load i8, ptr %35, align 2, !tbaa !61
  %37 = zext i8 %36 to i32
  %38 = sub i32 %37, %2
  %39 = load i64, ptr %11, align 8, !tbaa !15
  %40 = and i64 %39, 7
  %41 = icmp eq i64 %40, 3
  %42 = and i64 %39, -8
  %43 = sub i64 0, %42
  %.147 = select i1 %41, ptr %11, ptr %.046
  %.045.idx = select i1 %41, i64 %43, i64 0
  %.045 = getelementptr inbounds i8, ptr %11, i64 %.045.idx
  %44 = zext i32 %38 to i64
  %45 = getelementptr inbounds nuw %union.TValue, ptr %.045, i64 %44
  %46 = getelementptr inbounds nuw i8, ptr %45, i64 8
  %47 = icmp ult ptr %46, %.147
  br i1 %47, label %48, label %.thread

48:                                               ; preds = %34
  store ptr @.str.35, ptr %1, align 8, !tbaa !35
  br label %.thread

49:                                               ; preds = %24
  br i1 %.not54, label %91, label %50

50:                                               ; preds = %49
  %51 = getelementptr inbounds nuw i8, ptr %18, i64 32
  %52 = load i64, ptr %51, align 8, !tbaa !15
  %53 = inttoptr i64 %52 to ptr
  %54 = getelementptr i8, ptr %53, i64 -8
  %.val = load i64, ptr %54, align 8, !tbaa !32
  call void @llvm.lifetime.start.p0(i64 8, ptr nonnull %4) #11
  %55 = inttoptr i64 %.val to ptr
  store ptr %55, ptr %4, align 8, !tbaa !35
  %.not.i = icmp eq i64 %.val, 0
  br i1 %.not.i, label %debug_varname.exit, label %.preheader19.i.preheader

.preheader19.i.preheader:                         ; preds = %50
  %56 = add nsw i32 %2, -1
  br label %.preheader19.i

.preheader19.i:                                   ; preds = %.preheader19.i.preheader, %84
  %.promoted.i = phi ptr [ %.pre.i, %84 ], [ %55, %.preheader19.i.preheader ]
  %.026.i = phi i32 [ %67, %84 ], [ 0, %.preheader19.i.preheader ]
  %.019.i = phi i32 [ %.120.i, %84 ], [ %56, %.preheader19.i.preheader ]
  %57 = load i8, ptr %.promoted.i, align 1, !tbaa !15
  %58 = icmp ult i8 %57, 7
  br i1 %58, label %59, label %.preheader18.i

59:                                               ; preds = %.preheader19.i
  %60 = icmp eq i8 %57, 0
  br i1 %60, label %debug_varname.exit, label %.loopexit.i

.preheader18.i:                                   ; preds = %.preheader19.i, %.preheader18.i
  %61 = phi ptr [ %62, %.preheader18.i ], [ %.promoted.i, %.preheader19.i ]
  %62 = getelementptr inbounds nuw i8, ptr %61, i64 1
  store ptr %62, ptr %4, align 8, !tbaa !35
  %63 = load i8, ptr %62, align 1, !tbaa !15
  %.not35.i = icmp eq i8 %63, 0
  br i1 %.not35.i, label %.loopexit.i, label %.preheader18.i, !llvm.loop !37

.loopexit.i:                                      ; preds = %.preheader18.i, %59
  %64 = phi ptr [ %.promoted.i, %59 ], [ %62, %.preheader18.i ]
  %65 = getelementptr inbounds nuw i8, ptr %64, i64 1
  store ptr %65, ptr %4, align 8, !tbaa !35
  %66 = call i32 @lj_buf_ruleb128(ptr noundef nonnull %4) #11
  %67 = add i32 %66, %.026.i
  %68 = icmp ugt i32 %67, %19
  br i1 %68, label %debug_varname.exit, label %69

69:                                               ; preds = %.loopexit.i
  %70 = call i32 @lj_buf_ruleb128(ptr noundef nonnull %4) #11
  %71 = add i32 %70, %67
  %72 = icmp ult i32 %19, %71
  br i1 %72, label %73, label %84

73:                                               ; preds = %69
  %74 = add i32 %.019.i, -1
  %75 = icmp eq i32 %.019.i, 0
  br i1 %75, label %76, label %84

76:                                               ; preds = %73
  br i1 %58, label %77, label %debug_varname.exit

77:                                               ; preds = %76
  %78 = zext nneg i8 %57 to i32
  %79 = add nsw i32 %78, -1
  %.not36.i = icmp eq i32 %79, 0
  br i1 %.not36.i, label %debug_varname.exit.thread, label %.preheader.i.outer

.preheader.i.outer:                               ; preds = %77, %82
  %.125.i.ph = phi ptr [ %80, %82 ], [ @.str.34, %77 ]
  %.022.i.ph = phi i32 [ %83, %82 ], [ %79, %77 ]
  br label %.preheader.i

.preheader.i:                                     ; preds = %.preheader.i.outer, %.preheader.i
  %.125.i = phi ptr [ %80, %.preheader.i ], [ %.125.i.ph, %.preheader.i.outer ]
  %80 = getelementptr inbounds nuw i8, ptr %.125.i, i64 1
  %81 = load i8, ptr %.125.i, align 1, !tbaa !15
  %.not37.i = icmp eq i8 %81, 0
  br i1 %.not37.i, label %82, label %.preheader.i, !llvm.loop !38

82:                                               ; preds = %.preheader.i
  %83 = add i32 %.022.i.ph, -1
  %.not38.i = icmp eq i32 %83, 0
  br i1 %.not38.i, label %debug_varname.exit.thread, label %.preheader.i.outer, !llvm.loop !38

84:                                               ; preds = %73, %69
  %.120.i = phi i32 [ %74, %73 ], [ %.019.i, %69 ]
  %.pre.i = load ptr, ptr %4, align 8, !tbaa !35
  br label %.preheader19.i

debug_varname.exit.thread:                        ; preds = %82, %77
  %.2.i.ph = phi ptr [ @.str.34, %77 ], [ %80, %82 ]
  call void @llvm.lifetime.end.p0(i64 8, ptr nonnull %4) #11
  br label %.sink.split

debug_varname.exit:                               ; preds = %59, %.loopexit.i, %50, %76
  %.2.i = phi ptr [ %.promoted.i, %76 ], [ null, %50 ], [ null, %.loopexit.i ], [ null, %59 ]
  call void @llvm.lifetime.end.p0(i64 8, ptr nonnull %4) #11
  store ptr %.2.i, ptr %1, align 8, !tbaa !35
  %85 = icmp eq ptr %.2.i, null
  %86 = icmp ne i32 %2, 0
  %or.cond = and i1 %86, %85
  %87 = zext nneg i32 %2 to i64
  %88 = getelementptr inbounds nuw %union.TValue, ptr %11, i64 %87
  %89 = getelementptr inbounds nuw i8, ptr %88, i64 8
  %90 = icmp ult ptr %89, %.046
  %or.cond59 = select i1 %or.cond, i1 %90, i1 false
  br i1 %or.cond59, label %.sink.split, label %92

91:                                               ; preds = %49
  %.old1.not = icmp ne i32 %2, 0
  %.old = zext nneg i32 %2 to i64
  %.old56 = getelementptr inbounds nuw %union.TValue, ptr %11, i64 %.old
  %.old57 = getelementptr inbounds nuw i8, ptr %.old56, i64 8
  %.old58 = icmp ult ptr %.old57, %.046
  %or.cond60 = select i1 %.old1.not, i1 %.old58, i1 false
  br i1 %or.cond60, label %.sink.split, label %92

.sink.split:                                      ; preds = %debug_varname.exit, %91, %debug_varname.exit.thread
  %.2.i.ph.sink = phi ptr [ %.2.i.ph, %debug_varname.exit.thread ], [ @.str.36, %91 ], [ @.str.36, %debug_varname.exit ]
  store ptr %.2.i.ph.sink, ptr %1, align 8, !tbaa !35
  br label %92

92:                                               ; preds = %.sink.split, %91, %debug_varname.exit
  %93 = zext nneg i32 %2 to i64
  %94 = getelementptr inbounds nuw %union.TValue, ptr %11, i64 %93
  br label %.thread

.thread:                                          ; preds = %27, %34, %26, %48, %92
  %.1 = phi ptr [ %45, %48 ], [ %94, %92 ], [ null, %26 ], [ null, %34 ], [ null, %27 ]
  ret ptr %.1
}